target datalayout = "e-m:e-p270:32:32-p271:32:32-p272:64:64-i64:64-i128:128-f80:128-n8:16:32:64-S128"
target triple = "x86_64-pc-linux-gnu"

%struct.HeapScanDescData = type { %struct.TableScanDescData, i32, i32, i32, i8, i16, i32, i32, ptr, %struct.HeapTupleData, ptr, i32, i32, ptr, i32, i32, [291 x i16] }
%struct.TableScanDescData = type { ptr, ptr, i32, ptr, %union.anon, i32, ptr }
%union.anon = type { %struct.TBMIterator }
%struct.TBMIterator = type { i8, %union.anon.0 }
%union.anon.0 = type { ptr }
%struct.HeapTupleData = type { i32, %struct.ItemPointerData, i32, ptr }
%struct.ItemPointerData = type { %struct.BlockIdData, i16 }
%struct.BlockIdData = type { i16, i16 }
%struct.RelationData = type { %struct.RelFileLocator, ptr, i32, i32, i8, i8, i8, i8, i8, i32, i32, i32, i32, ptr, ptr, i32, %struct.LockInfoData, ptr, ptr, ptr, ptr, ptr, i8, ptr, ptr, ptr, ptr, ptr, ptr, i32, ptr, i8, ptr, ptr, i32, i8, i32, ptr, i8, ptr, ptr, ptr, ptr, ptr, ptr, ptr, i32, ptr, ptr, ptr, ptr, ptr, ptr, ptr, ptr, ptr, ptr, ptr, ptr, ptr, ptr, ptr, ptr, ptr, ptr, ptr, i32, i8, ptr }
%struct.RelFileLocator = type { i32, i32, i32 }
%struct.LockInfoData = type { %struct.LockRelId }
%struct.LockRelId = type { i32, i32 }
%struct.PgStat_TableStatus = type { i32, i8, ptr, %struct.PgStat_TableCounts, ptr }
%struct.PgStat_TableCounts = type { i64, i64, i64, i64, i64, i64, i64, i64, i8, i64, i64, i64, i64, i64 }

@.str = private unnamed_addr constant [26 x i8] c"only heap AM is supported\00", align 1
@.str.1 = private unnamed_addr constant [9 x i8] c"heapam.c\00", align 1
@__func__.heap_getnext = private unnamed_addr constant [13 x i8] c"heap_getnext\00", align 1
@CheckXidAlive = external global i32, align 4
@bsysscan = external global i8, align 1
@.str.2 = private unnamed_addr constant [53 x i8] c"unexpected heap_getnext call during logical decoding\00", align 1

; Function Attrs: nounwind uwtable
define dso_local ptr @heap_getnext(ptr noundef %0, i32 noundef %1) #0 {
  %3 = alloca ptr, align 8
  %4 = alloca ptr, align 8
  %5 = alloca i32, align 4
  %6 = alloca ptr, align 8
  %7 = alloca i32, align 4
  store ptr %0, ptr %4, align 8
  store i32 %1, ptr %5, align 4
  call void @llvm.lifetime.start.p0(i64 8, ptr %6) #10
  %8 = load ptr, ptr %4, align 8
  store ptr %8, ptr %6, align 8
  %9 = load ptr, ptr %4, align 8
  %10 = getelementptr inbounds nuw %struct.TableScanDescData, ptr %9, i32 0, i32 0
  %11 = load ptr, ptr %10, align 8
  %12 = getelementptr inbounds nuw %struct.RelationData, ptr %11, i32 0, i32 47
  %13 = load ptr, ptr %12, align 8
  %14 = call ptr @GetHeapamTableAmRoutine()
  %15 = icmp ne ptr %13, %14
  %16 = zext i1 %15 to i32
  %17 = icmp ne i32 %16, 0
  %18 = zext i1 %17 to i32
  %19 = sext i32 %18 to i64
  %20 = call i64 @llvm.expect.i64(i64 %19, i64 0)
  %21 = icmp ne i64 %20, 0
  br i1 %21, label %22, label %34

22:                                               ; preds = %2
  br label %23

23:                                               ; preds = %22
  br i1 true, label %24, label %26

24:                                               ; preds = %23
  %25 = call zeroext i1 @errstart_cold(i32 noundef 21, ptr noundef null) #11
  br i1 %25, label %28, label %31

26:                                               ; preds = %23
  %27 = call zeroext i1 @errstart(i32 noundef 21, ptr noundef null)
  br i1 %27, label %28, label %31

28:                                               ; preds = %26, %24
  %29 = call i32 @errcode(i32 noundef 1088)
  %30 = call i32 (ptr, ...) @errmsg_internal(ptr noundef @.str)
  call void @errfinish(ptr noundef @.str.1, i32 noundef 1280, ptr noundef @__func__.heap_getnext)
  br label %31

31:                                               ; preds = %28, %26, %24
  unreachable

32:                                               ; No predecessors!
  br label %33

33:                                               ; preds = %32
  br label %34

34:                                               ; preds = %33, %2
  %35 = load i32, ptr @CheckXidAlive, align 4
  %36 = icmp ne i32 %35, 0
  br i1 %36, label %37, label %41

37:                                               ; preds = %34
  %38 = load i8, ptr @bsysscan, align 1, !range !4, !noundef !5
  %39 = trunc i8 %38 to i1
  %40 = xor i1 %39, true
  br label %41

41:                                               ; preds = %37, %34
  %42 = phi i1 [ false, %34 ], [ %40, %37 ]
  %43 = zext i1 %42 to i32
  %44 = icmp ne i32 %43, 0
  %45 = zext i1 %44 to i32
  %46 = sext i32 %45 to i64
  %47 = call i64 @llvm.expect.i64(i64 %46, i64 0)
  %48 = icmp ne i64 %47, 0
  br i1 %48, label %49, label %60

49:                                               ; preds = %41
  br label %50

50:                                               ; preds = %49
  br i1 true, label %51, label %53

51:                                               ; preds = %50
  %52 = call zeroext i1 @errstart_cold(i32 noundef 21, ptr noundef null) #11
  br i1 %52, label %55, label %57

53:                                               ; preds = %50
  %54 = call zeroext i1 @errstart(i32 noundef 21, ptr noundef null)
  br i1 %54, label %55, label %57

55:                                               ; preds = %53, %51
  %56 = call i32 (ptr, ...) @errmsg_internal(ptr noundef @.str.2)
  call void @errfinish(ptr noundef @.str.1, i32 noundef 1290, ptr noundef @__func__.heap_getnext)
  br label %57

57:                                               ; preds = %55, %53, %51
  unreachable

58:                                               ; No predecessors!
  br label %59

59:                                               ; preds = %58
  br label %60

60:                                               ; preds = %59, %41
  %61 = load ptr, ptr %6, align 8
  %62 = getelementptr inbounds nuw %struct.HeapScanDescData, ptr %61, i32 0, i32 0
  %63 = getelementptr inbounds nuw %struct.TableScanDescData, ptr %62, i32 0, i32 5
  %64 = load i32, ptr %63, align 8
  %65 = and i32 %64, 256
  %66 = icmp ne i32 %65, 0
  br i1 %66, label %67, label %78

67:                                               ; preds = %60
  %68 = load ptr, ptr %6, align 8
  %69 = load i32, ptr %5, align 4
  %70 = load ptr, ptr %6, align 8
  %71 = getelementptr inbounds nuw %struct.HeapScanDescData, ptr %70, i32 0, i32 0
  %72 = getelementptr inbounds nuw %struct.TableScanDescData, ptr %71, i32 0, i32 2
  %73 = load i32, ptr %72, align 8
  %74 = load ptr, ptr %6, align 8
  %75 = getelementptr inbounds nuw %struct.HeapScanDescData, ptr %74, i32 0, i32 0
  %76 = getelementptr inbounds nuw %struct.TableScanDescData, ptr %75, i32 0, i32 3
  %77 = load ptr, ptr %76, align 8
  call void @heapgettup_pagemode(ptr noundef %68, i32 noundef %69, i32 noundef %73, ptr noundef %77)
  br label %89

78:                                               ; preds = %60
  %79 = load ptr, ptr %6, align 8
  %80 = load i32, ptr %5, align 4
  %81 = load ptr, ptr %6, align 8
  %82 = getelementptr inbounds nuw %struct.HeapScanDescData, ptr %81, i32 0, i32 0
  %83 = getelementptr inbounds nuw %struct.TableScanDescData, ptr %82, i32 0, i32 2
  %84 = load i32, ptr %83, align 8
  %85 = load ptr, ptr %6, align 8
  %86 = getelementptr inbounds nuw %struct.HeapScanDescData, ptr %85, i32 0, i32 0
  %87 = getelementptr inbounds nuw %struct.TableScanDescData, ptr %86, i32 0, i32 3
  %88 = load ptr, ptr %87, align 8
  call void @heapgettup(ptr noundef %79, i32 noundef %80, i32 noundef %84, ptr noundef %88)
  br label %89

89:                                               ; preds = %78, %67
  %90 = load ptr, ptr %6, align 8
  %91 = getelementptr inbounds nuw %struct.HeapScanDescData, ptr %90, i32 0, i32 9
  %92 = getelementptr inbounds nuw %struct.HeapTupleData, ptr %91, i32 0, i32 3
  %93 = load ptr, ptr %92, align 8
  %94 = icmp eq ptr %93, null
  br i1 %94, label %95, label %96

95:                                               ; preds = %89
  store ptr null, ptr %3, align 8
  store i32 1, ptr %7, align 4
  br label %142

96:                                               ; preds = %89
  br label %97

97:                                               ; preds = %96
  %98 = load ptr, ptr %6, align 8
  %99 = getelementptr inbounds nuw %struct.HeapScanDescData, ptr %98, i32 0, i32 0
  %100 = getelementptr inbounds nuw %struct.TableScanDescData, ptr %99, i32 0, i32 0
  %101 = load ptr, ptr %100, align 8
  %102 = getelementptr inbounds nuw %struct.RelationData, ptr %101, i32 0, i32 68
  %103 = load ptr, ptr %102, align 8
  %104 = icmp ne ptr %103, null
  %105 = zext i1 %104 to i32
  %106 = icmp ne i32 %105, 0
  %107 = zext i1 %106 to i32
  %108 = sext i32 %107 to i64
  %109 = call i64 @llvm.expect.i64(i64 %108, i64 1)
  %110 = icmp ne i64 %109, 0
  br i1 %110, label %111, label %112

111:                                              ; preds = %97
  br i1 true, label %126, label %137

112:                                              ; preds = %97
  %113 = load ptr, ptr %6, align 8
  %114 = getelementptr inbounds nuw %struct.HeapScanDescData, ptr %113, i32 0, i32 0
  %115 = getelementptr inbounds nuw %struct.TableScanDescData, ptr %114, i32 0, i32 0
  %116 = load ptr, ptr %115, align 8
  %117 = getelementptr inbounds nuw %struct.RelationData, ptr %116, i32 0, i32 67
  %118 = load i8, ptr %117, align 4, !range !4, !noundef !5
  %119 = trunc i8 %118 to i1
  br i1 %119, label %120, label %125

120:                                              ; preds = %112
  %121 = load ptr, ptr %6, align 8
  %122 = getelementptr inbounds nuw %struct.HeapScanDescData, ptr %121, i32 0, i32 0
  %123 = getelementptr inbounds nuw %struct.TableScanDescData, ptr %122, i32 0, i32 0
  %124 = load ptr, ptr %123, align 8
  call void @pgstat_assoc_relation(ptr noundef %124)
  br i1 true, label %126, label %137

125:                                              ; preds = %112
  br i1 false, label %126, label %137

126:                                              ; preds = %125, %120, %111
  %127 = load ptr, ptr %6, align 8
  %128 = getelementptr inbounds nuw %struct.HeapScanDescData, ptr %127, i32 0, i32 0
  %129 = getelementptr inbounds nuw %struct.TableScanDescData, ptr %128, i32 0, i32 0
  %130 = load ptr, ptr %129, align 8
  %131 = getelementptr inbounds nuw %struct.RelationData, ptr %130, i32 0, i32 68
  %132 = load ptr, ptr %131, align 8
  %133 = getelementptr inbounds nuw %struct.PgStat_TableStatus, ptr %132, i32 0, i32 3
  %134 = getelementptr inbounds nuw %struct.PgStat_TableCounts, ptr %133, i32 0, i32 1
  %135 = load i64, ptr %134, align 8
  %136 = add i64 %135, 1
  store i64 %136, ptr %134, align 8
  br label %137

137:                                              ; preds = %126, %125, %120, %111
  br label %138

138:                                              ; preds = %137
  br label %139

139:                                              ; preds = %138
  %140 = load ptr, ptr %6, align 8
  %141 = getelementptr inbounds nuw %struct.HeapScanDescData, ptr %140, i32 0, i32 9
  store ptr %141, ptr %3, align 8
  store i32 1, ptr %7, align 4
  br label %142

142:                                              ; preds = %139, %95
  call void @llvm.lifetime.end.p0(i64 8, ptr %6) #10
  %143 = load ptr, ptr %3, align 8
  ret ptr %143
}