; Function Attrs: nounwind uwtable
define dso_local ptr @heap_getnext(ptr noundef %0, i32 noundef %1) local_unnamed_addr #2 {
  %3 = load ptr, ptr %0, align 8
  %4 = getelementptr inbounds nuw i8, ptr %3, i64 320
  %5 = load ptr, ptr %4, align 8
  %6 = tail call ptr @GetHeapamTableAmRoutine() #13
  %.not = icmp eq ptr %5, %6
  br i1 %.not, label %11, label %7, !prof !11

7:                                                ; preds = %2
  %8 = tail call zeroext i1 @errstart_cold(i32 noundef 21, ptr noundef null) #14
  tail call void @llvm.assume(i1 %8)
  %9 = tail call i32 @errcode(i32 noundef 1088) #13
  %10 = tail call i32 (ptr, ...) @errmsg_internal(ptr noundef nonnull @.str) #13
  tail call void @errfinish(ptr noundef nonnull @.str.1, i32 noundef 1280, ptr noundef nonnull @__func__.heap_getnext) #13
  unreachable

11:                                               ; preds = %2
  %12 = load i32, ptr @CheckXidAlive, align 4
  %13 = icmp eq i32 %12, 0
  %14 = load i8, ptr @bsysscan, align 1, !range !6
  %15 = trunc nuw i8 %14 to i1
  %.not18 = select i1 %13, i1 true, i1 %15
  br i1 %.not18, label %19, label %16, !prof !11

16:                                               ; preds = %11
  %17 = tail call zeroext i1 @errstart_cold(i32 noundef 21, ptr noundef null) #14
  tail call void @llvm.assume(i1 %17)
  %18 = tail call i32 (ptr, ...) @errmsg_internal(ptr noundef nonnull @.str.2) #13
  tail call void @errfinish(ptr noundef nonnull @.str.1, i32 noundef 1290, ptr noundef nonnull @__func__.heap_getnext) #13
  unreachable

19:                                               ; preds = %11
  %20 = getelementptr inbounds nuw i8, ptr %0, i64 48
  %21 = load i32, ptr %20, align 8
  %22 = and i32 %21, 256
  %.not19 = icmp eq i32 %22, 0
  %23 = getelementptr inbounds nuw i8, ptr %0, i64 16
  %24 = load i32, ptr %23, align 8
  %25 = getelementptr inbounds nuw i8, ptr %0, i64 24
  %26 = load ptr, ptr %25, align 8
  br i1 %.not19, label %28, label %27

27:                                               ; preds = %19
  tail call fastcc void @heapgettup_pagemode(ptr noundef nonnull %0, i32 noundef %1, i32 noundef %24, ptr noundef %26)
  br label %29

28:                                               ; preds = %19
  tail call fastcc void @heapgettup(ptr noundef nonnull %0, i32 noundef %1, i32 noundef %24, ptr noundef %26)
  br label %29

29:                                               ; preds = %28, %27
  %30 = getelementptr inbounds nuw i8, ptr %0, i64 96
  %31 = getelementptr inbounds nuw i8, ptr %0, i64 112
  %32 = load ptr, ptr %31, align 8
  %33 = icmp eq ptr %32, null
  br i1 %33, label %48, label %34

34:                                               ; preds = %29
  %35 = load ptr, ptr %0, align 8
  %36 = getelementptr inbounds nuw i8, ptr %35, i64 480
  %37 = load ptr, ptr %36, align 8
  %.not20 = icmp eq ptr %37, null
  br i1 %.not20, label %38, label %43, !prof !5

38:                                               ; preds = %34
  %39 = getelementptr inbounds nuw i8, ptr %35, i64 476
  %40 = load i8, ptr %39, align 4, !range !6, !noundef !7
  %41 = trunc nuw i8 %40 to i1
  br i1 %41, label %42, label %48

42:                                               ; preds = %38
  tail call void @pgstat_assoc_relation(ptr noundef nonnull %35) #13
  %.pre = load ptr, ptr %0, align 8
  %.phi.trans.insert = getelementptr inbounds nuw i8, ptr %.pre, i64 480
  %.pre21 = load ptr, ptr %.phi.trans.insert, align 8
  br label %43

43:                                               ; preds = %34, %42
  %44 = phi ptr [ %37, %34 ], [ %.pre21, %42 ]
  %45 = getelementptr inbounds nuw i8, ptr %44, i64 24
  %46 = load i64, ptr %45, align 8
  %47 = add i64 %46, 1
  store i64 %47, ptr %45, align 8
  br label %48

48:                                               ; preds = %43, %38, %29
  %.0 = phi ptr [ null, %29 ], [ %30, %38 ], [ %30, %43 ]
  ret ptr %.0
}